target datalayout = "e-m:e-p270:32:32-p271:32:32-p272:64:64-i64:64-i128:128-f80:128-n8:16:32:64-S128"
target triple = "x86_64-pc-linux-gnu"

%struct.internal_hooks = type { ptr, ptr, ptr }
%struct.cJSON = type { ptr, ptr, ptr, i32, ptr, i32, double, ptr }

@global_hooks = internal global %struct.internal_hooks { ptr @malloc, ptr @free, ptr @realloc }, align 8

; Function Attrs: nounwind sspstrong uwtable
define internal ptr @cJSON_New_Item(ptr noundef %0) #0 {
  %2 = alloca ptr, align 8
  %3 = alloca ptr, align 8
  store ptr %0, ptr %2, align 8, !tbaa !35
  call void @llvm.lifetime.start.p0(i64 8, ptr %3) #10
  %4 = load ptr, ptr %2, align 8, !tbaa !35
  %5 = getelementptr inbounds nuw %struct.internal_hooks, ptr %4, i32 0, i32 0
  %6 = load ptr, ptr %5, align 8, !tbaa !21
  %7 = call ptr %6(i64 noundef 64)
  store ptr %7, ptr %3, align 8, !tbaa !11
  %8 = load ptr, ptr %3, align 8, !tbaa !11
  %9 = icmp ne ptr %8, null
  br i1 %9, label %10, label %12

10:                                               ; preds = %1
  %11 = load ptr, ptr %3, align 8, !tbaa !11
  call void @llvm.memset.p0.i64(ptr align 8 %11, i8 0, i64 64, i1 false)
  br label %12

12:                                               ; preds = %10, %1
  %13 = load ptr, ptr %3, align 8, !tbaa !11
  call void @llvm.lifetime.end.p0(i64 8, ptr %3) #10
  ret ptr %13
}

; Function Attrs: nounwind sspstrong uwtable
define internal void @suffix_object(ptr noundef %0, ptr noundef %1) #0 {
  %3 = alloca ptr, align 8
  %4 = alloca ptr, align 8
  store ptr %0, ptr %3, align 8, !tbaa !11
  store ptr %1, ptr %4, align 8, !tbaa !11
  %5 = load ptr, ptr %4, align 8, !tbaa !11
  %6 = load ptr, ptr %3, align 8, !tbaa !11
  %7 = getelementptr inbounds nuw %struct.cJSON, ptr %6, i32 0, i32 0
  store ptr %5, ptr %7, align 8, !tbaa !28
  %8 = load ptr, ptr %3, align 8, !tbaa !11
  %9 = load ptr, ptr %4, align 8, !tbaa !11
  %10 = getelementptr inbounds nuw %struct.cJSON, ptr %9, i32 0, i32 1
  store ptr %8, ptr %10, align 8, !tbaa !54
  ret void
}

; Function Attrs: nounwind sspstrong uwtable
define ptr @cJSON_CreateNumber(double noundef %0) #0 {
  %2 = alloca double, align 8
  %3 = alloca ptr, align 8
  store double %0, ptr %2, align 8, !tbaa !31
  call void @llvm.lifetime.start.p0(i64 8, ptr %3) #10
  %4 = call ptr @cJSON_New_Item(ptr noundef @global_hooks)
  store ptr %4, ptr %3, align 8, !tbaa !11
  %5 = load ptr, ptr %3, align 8, !tbaa !11
  %6 = icmp ne ptr %5, null
  br i1 %6, label %7, label %31

7:                                                ; preds = %1
  %8 = load ptr, ptr %3, align 8, !tbaa !11
  %9 = getelementptr inbounds nuw %struct.cJSON, ptr %8, i32 0, i32 3
  store i32 8, ptr %9, align 8, !tbaa !17
  %10 = load double, ptr %2, align 8, !tbaa !31
  %11 = load ptr, ptr %3, align 8, !tbaa !11
  %12 = getelementptr inbounds nuw %struct.cJSON, ptr %11, i32 0, i32 6
  store double %10, ptr %12, align 8, !tbaa !18
  %13 = load double, ptr %2, align 8, !tbaa !31
  %14 = fcmp oge double %13, 0x41DFFFFFFFC00000
  br i1 %14, label %15, label %18

15:                                               ; preds = %7
  %16 = load ptr, ptr %3, align 8, !tbaa !11
  %17 = getelementptr inbounds nuw %struct.cJSON, ptr %16, i32 0, i32 5
  store i32 2147483647, ptr %17, align 8, !tbaa !32
  br label %30

18:                                               ; preds = %7
  %19 = load double, ptr %2, align 8, !tbaa !31
  %20 = fcmp ole double %19, 0xC1E0000000000000
  br i1 %20, label %21, label %24

21:                                               ; preds = %18
  %22 = load ptr, ptr %3, align 8, !tbaa !11
  %23 = getelementptr inbounds nuw %struct.cJSON, ptr %22, i32 0, i32 5
  store i32 -2147483648, ptr %23, align 8, !tbaa !32
  br label %29

24:                                               ; preds = %18
  %25 = load double, ptr %2, align 8, !tbaa !31
  %26 = fptosi double %25 to i32
  %27 = load ptr, ptr %3, align 8, !tbaa !11
  %28 = getelementptr inbounds nuw %struct.cJSON, ptr %27, i32 0, i32 5
  store i32 %26, ptr %28, align 8, !tbaa !32
  br label %29

29:                                               ; preds = %24, %21
  br label %30

30:                                               ; preds = %29, %15
  br label %31

31:                                               ; preds = %30, %1
  %32 = load ptr, ptr %3, align 8, !tbaa !11
  call void @llvm.lifetime.end.p0(i64 8, ptr %3) #10
  ret ptr %32
}

; Function Attrs: nounwind sspstrong uwtable
define ptr @cJSON_CreateArray() #0 {
  %1 = alloca ptr, align 8
  call void @llvm.lifetime.start.p0(i64 8, ptr %1) #10
  %2 = call ptr @cJSON_New_Item(ptr noundef @global_hooks)
  store ptr %2, ptr %1, align 8, !tbaa !11
  %3 = load ptr, ptr %1, align 8, !tbaa !11
  %4 = icmp ne ptr %3, null
  br i1 %4, label %5, label %8

5:                                                ; preds = %0
  %6 = load ptr, ptr %1, align 8, !tbaa !11
  %7 = getelementptr inbounds nuw %struct.cJSON, ptr %6, i32 0, i32 3
  store i32 32, ptr %7, align 8, !tbaa !17
  br label %8

8:                                                ; preds = %5, %0
  %9 = load ptr, ptr %1, align 8, !tbaa !11
  call void @llvm.lifetime.end.p0(i64 8, ptr %1) #10
  ret ptr %9
}

; Function Attrs: nounwind sspstrong uwtable
define ptr @cJSON_CreateFloatArray(ptr noundef %0, i32 noundef %1) #0 {
  %3 = alloca ptr, align 8
  %4 = alloca ptr, align 8
  %5 = alloca i32, align 4
  %6 = alloca i64, align 8
  %7 = alloca ptr, align 8
  %8 = alloca ptr, align 8
  %9 = alloca ptr, align 8
  %10 = alloca i32, align 4
  store ptr %0, ptr %4, align 8, !tbaa !57
  store i32 %1, ptr %5, align 4, !tbaa !40
  call void @llvm.lifetime.start.p0(i64 8, ptr %6) #10
  store i64 0, ptr %6, align 8, !tbaa !34
  call void @llvm.lifetime.start.p0(i64 8, ptr %7) #10
  store ptr null, ptr %7, align 8, !tbaa !11
  call void @llvm.lifetime.start.p0(i64 8, ptr %8) #10
  store ptr null, ptr %8, align 8, !tbaa !11
  call void @llvm.lifetime.start.p0(i64 8, ptr %9) #10
  store ptr null, ptr %9, align 8, !tbaa !11
  %11 = load i32, ptr %5, align 4, !tbaa !40
  %12 = icmp slt i32 %11, 0
  br i1 %12, label %16, label %13

13:                                               ; preds = %2
  %14 = load ptr, ptr %4, align 8, !tbaa !57
  %15 = icmp eq ptr %14, null
  br i1 %15, label %16, label %17

16:                                               ; preds = %13, %2
  store ptr null, ptr %3, align 8
  store i32 1, ptr %10, align 4
  br label %71

17:                                               ; preds = %13
  %18 = call ptr @cJSON_CreateArray()
  store ptr %18, ptr %9, align 8, !tbaa !11
  store i64 0, ptr %6, align 8, !tbaa !34
  br label %19

19:                                               ; preds = %52, %17
  %20 = load ptr, ptr %9, align 8, !tbaa !11
  %21 = icmp ne ptr %20, null
  br i1 %21, label %22, label %27

22:                                               ; preds = %19
  %23 = load i64, ptr %6, align 8, !tbaa !34
  %24 = load i32, ptr %5, align 4, !tbaa !40
  %25 = sext i32 %24 to i64
  %26 = icmp ult i64 %23, %25
  br label %27

27:                                               ; preds = %22, %19
  %28 = phi i1 [ false, %19 ], [ %26, %22 ]
  br i1 %28, label %29, label %55

29:                                               ; preds = %27
  %30 = load ptr, ptr %4, align 8, !tbaa !57
  %31 = load i64, ptr %6, align 8, !tbaa !34
  %32 = getelementptr inbounds nuw float, ptr %30, i64 %31
  %33 = load float, ptr %32, align 4, !tbaa !59
  %34 = fpext float %33 to double
  %35 = call ptr @cJSON_CreateNumber(double noundef %34)
  store ptr %35, ptr %7, align 8, !tbaa !11
  %36 = load ptr, ptr %7, align 8, !tbaa !11
  %37 = icmp ne ptr %36, null
  br i1 %37, label %40, label %38

38:                                               ; preds = %29
  %39 = load ptr, ptr %9, align 8, !tbaa !11
  call void @cJSON_Delete(ptr noundef %39)
  store ptr null, ptr %3, align 8
  store i32 1, ptr %10, align 4
  br label %71

40:                                               ; preds = %29
  %41 = load i64, ptr %6, align 8, !tbaa !34
  %42 = icmp ne i64 %41, 0
  br i1 %42, label %47, label %43

43:                                               ; preds = %40
  %44 = load ptr, ptr %7, align 8, !tbaa !11
  %45 = load ptr, ptr %9, align 8, !tbaa !11
  %46 = getelementptr inbounds nuw %struct.cJSON, ptr %45, i32 0, i32 2
  store ptr %44, ptr %46, align 8, !tbaa !29
  br label %50

47:                                               ; preds = %40
  %48 = load ptr, ptr %8, align 8, !tbaa !11
  %49 = load ptr, ptr %7, align 8, !tbaa !11
  call void @suffix_object(ptr noundef %48, ptr noundef %49)
  br label %50

50:                                               ; preds = %47, %43
  %51 = load ptr, ptr %7, align 8, !tbaa !11
  store ptr %51, ptr %8, align 8, !tbaa !11
  br label %52

52:                                               ; preds = %50
  %53 = load i64, ptr %6, align 8, !tbaa !34
  %54 = add i64 %53, 1
  store i64 %54, ptr %6, align 8, !tbaa !34
  br label %19

55:                                               ; preds = %27
  %56 = load ptr, ptr %9, align 8, !tbaa !11
  %57 = icmp ne ptr %56, null
  br i1 %57, label %58, label %69

58:                                               ; preds = %55
  %59 = load ptr, ptr %9, align 8, !tbaa !11
  %60 = getelementptr inbounds nuw %struct.cJSON, ptr %59, i32 0, i32 2
  %61 = load ptr, ptr %60, align 8, !tbaa !29
  %62 = icmp ne ptr %61, null
  br i1 %62, label %63, label %69

63:                                               ; preds = %58
  %64 = load ptr, ptr %7, align 8, !tbaa !11
  %65 = load ptr, ptr %9, align 8, !tbaa !11
  %66 = getelementptr inbounds nuw %struct.cJSON, ptr %65, i32 0, i32 2
  %67 = load ptr, ptr %66, align 8, !tbaa !29
  %68 = getelementptr inbounds nuw %struct.cJSON, ptr %67, i32 0, i32 1
  store ptr %64, ptr %68, align 8, !tbaa !54
  br label %69

69:                                               ; preds = %63, %58, %55
  %70 = load ptr, ptr %9, align 8, !tbaa !11
  store ptr %70, ptr %3, align 8
  store i32 1, ptr %10, align 4
  br label %71

71:                                               ; preds = %69, %38, %16
  call void @llvm.lifetime.end.p0(i64 8, ptr %9) #10
  call void @llvm.lifetime.end.p0(i64 8, ptr %8) #10
  call void @llvm.lifetime.end.p0(i64 8, ptr %7) #10
  call void @llvm.lifetime.end.p0(i64 8, ptr %6) #10
  %72 = load ptr, ptr %3, align 8
  ret ptr %72
}