; Function Attrs: nounwind sspstrong uwtable
define noundef ptr @cJSON_CreateFloatArray(ptr noundef readonly %0, i32 noundef %1) local_unnamed_addr #8 {
  %3 = icmp slt i32 %1, 0
  %4 = icmp eq ptr %0, null
  %or.cond = or i1 %4, %3
  br i1 %or.cond, label %._crit_edge.thread46, label %5

5:                                                ; preds = %2
  %global_hooks.val.i = load ptr, ptr @global_hooks, align 8, !tbaa !18
  %6 = tail call ptr %global_hooks.val.i(i64 noundef 64) #31
  %.fr40 = freeze ptr %6
  %.not.i.i = icmp eq ptr %.fr40, null
  br i1 %.not.i.i, label %._crit_edge.thread46, label %cJSON_CreateArray.exit

cJSON_CreateArray.exit:                           ; preds = %5
  tail call void @llvm.memset.p0.i64(ptr noundef nonnull align 8 dereferenceable(64) %.fr40, i8 0, i64 64, i1 false)
  %7 = getelementptr inbounds nuw i8, ptr %.fr40, i64 24
  store i32 32, ptr %7, align 8, !tbaa !11
  %8 = zext nneg i32 %1 to i64
  %.not50 = icmp eq i32 %1, 0
  br i1 %.not50, label %._crit_edge.thread, label %.lr.ph.split.preheader

.lr.ph.split.preheader:                           ; preds = %cJSON_CreateArray.exit
  %9 = getelementptr inbounds nuw i8, ptr %.fr40, i64 16
  br label %.lr.ph.split

.lr.ph.split:                                     ; preds = %.lr.ph.split.preheader, %27
  %.037 = phi ptr [ %12, %27 ], [ null, %.lr.ph.split.preheader ]
  %.02336 = phi i64 [ %28, %27 ], [ 0, %.lr.ph.split.preheader ]
  %10 = getelementptr inbounds nuw float, ptr %0, i64 %.02336
  %11 = load float, ptr %10, align 4, !tbaa !57
  %global_hooks.val.i32 = load ptr, ptr @global_hooks, align 8, !tbaa !18
  %12 = tail call ptr %global_hooks.val.i32(i64 noundef 64) #31
  %.not.i.i33 = icmp eq ptr %12, null
  br i1 %.not.i.i33, label %.split.us, label %13

13:                                               ; preds = %.lr.ph.split
  %14 = fpext float %11 to double
  tail call void @llvm.memset.p0.i64(ptr noundef nonnull align 8 dereferenceable(64) %12, i8 0, i64 64, i1 false)
  %15 = getelementptr inbounds nuw i8, ptr %12, i64 24
  store i32 8, ptr %15, align 8, !tbaa !11
  %16 = getelementptr inbounds nuw i8, ptr %12, i64 48
  store double %14, ptr %16, align 8, !tbaa !17
  %17 = fcmp ult double %14, 0x41DFFFFFFFC00000
  br i1 %17, label %18, label %22

18:                                               ; preds = %13
  %19 = fcmp ugt float %11, 0xC1E0000000000000
  br i1 %19, label %20, label %22

20:                                               ; preds = %18
  %21 = fptosi float %11 to i32
  br label %22

.split.us:                                        ; preds = %.lr.ph.split
  tail call void @cJSON_Delete(ptr noundef nonnull %.fr40)
  br label %._crit_edge.thread46

22:                                               ; preds = %20, %18, %13
  %.sink.i = phi i32 [ %21, %20 ], [ 2147483647, %13 ], [ -2147483648, %18 ]
  %23 = getelementptr inbounds nuw i8, ptr %12, i64 40
  store i32 %.sink.i, ptr %23, align 8, !tbaa !27
  %.not31 = icmp eq i64 %.02336, 0
  br i1 %.not31, label %24, label %25

24:                                               ; preds = %22
  store ptr %12, ptr %9, align 8, !tbaa !25
  br label %27

25:                                               ; preds = %22
  store ptr %12, ptr %.037, align 8, !tbaa !24
  %26 = getelementptr inbounds nuw i8, ptr %12, i64 8
  store ptr %.037, ptr %26, align 8, !tbaa !40
  br label %27

27:                                               ; preds = %25, %24
  %28 = add nuw nsw i64 %.02336, 1
  %exitcond.not = icmp eq i64 %28, %8
  br i1 %exitcond.not, label %._crit_edge.thread, label %.lr.ph.split

._crit_edge.thread:                               ; preds = %27, %cJSON_CreateArray.exit
  %.0.lcssa45 = phi ptr [ null, %cJSON_CreateArray.exit ], [ %12, %27 ]
  %29 = getelementptr inbounds nuw i8, ptr %.fr40, i64 16
  %30 = load ptr, ptr %29, align 8, !tbaa !25
  %.not = icmp eq ptr %30, null
  br i1 %.not, label %._crit_edge.thread46, label %31

31:                                               ; preds = %._crit_edge.thread
  %32 = getelementptr inbounds nuw i8, ptr %30, i64 8
  store ptr %.0.lcssa45, ptr %32, align 8, !tbaa !40
  br label %._crit_edge.thread46

._crit_edge.thread46:                             ; preds = %5, %._crit_edge.thread, %31, %2, %.split.us
  %.024 = phi ptr [ null, %.split.us ], [ null, %2 ], [ %.fr40, %31 ], [ %.fr40, %._crit_edge.thread ], [ null, %5 ]
  ret ptr %.024
}